(dp1
S'DB00953'
p2
c__builtin__
set
p3
((lp4
S'ENSP00000340684'
p5
aS'ENSP00000342007'
p6
aS'ENSP00000358963'
p7
aS'ENSP00000322924'
p8
aS'ENSP00000313661'
p9
atRp10
sS'DB04574'
p11
g3
((lp12
S'ENSP00000260682'
p13
aS'ENSP00000342007'
p14
aS'ENSP00000206249'
p15
aS'ENSP00000343925'
p16
aS'ENSP00000337915'
p17
atRp18
sS'DB00328'
p19
g3
((lp20
S'ENSP00000332812'
p21
aS'ENSP00000337335'
p22
aS'ENSP00000354612'
p23
aS'ENSP00000346768'
p24
aS'ENSP00000367102'
p25
aS'ENSP00000362463'
p26
aS'ENSP00000301891'
p27
aS'ENSP00000382342'
p28
aS'ENSP00000287820'
p29
aS'ENSP00000260682'
p30
aS'ENSP00000265724'
p31
aS'ENSP00000364252'
p32
aS'ENSP00000356438'
p33
aS'ENSP00000359478'
p34
atRp35
sS'DB01062'
p36
g3
((lp37
S'ENSP00000353820'
p38
aS'ENSP00000255380'
p39
aS'ENSP00000319984'
p40
aS'ENSP00000337915'
p41
aS'ENSP00000306490'
p42
aS'ENSP00000222982'
p43
aS'ENSP00000360317'
p44
atRp45
sS'DB00952'
p46
g3
((lp47
S'ENSP00000340684'
p48
aS'ENSP00000358963'
p49
aS'ENSP00000313661'
p50
aS'ENSP00000322924'
p51
aS'ENSP00000316244'
p52
atRp53
sS'DB00496'
p54
g3
((lp55
S'ENSP00000353820'
p56
aS'ENSP00000255380'
p57
aS'ENSP00000319984'
p58
aS'ENSP00000331108'
p59
aS'ENSP00000337915'
p60
aS'ENSP00000409378'
p61
aS'ENSP00000306490'
p62
atRp63
sS'DB01044'
p64
g3
((ltRp65
sS'DB01284'
p66
g3
((lp67
S'ENSP00000333821'
p68
atRp69
sS'DB01026'
p70
g3
((lp71
S'ENSP00000353820'
p72
aS'ENSP00000268053'
p73
aS'ENSP00000301141'
p74
aS'ENSP00000265724'
p75
aS'ENSP00000324648'
p76
aS'ENSP00000337915'
p77
aS'ENSP00000292427'
p78
aS'ENSP00000260682'
p79
aS'ENSP00000263817'
p80
aS'ENSP00000003100'
p81
aS'ENSP00000342007'
p82
aS'ENSP00000222982'
p83
aS'ENSP00000360317'
p84
atRp85
sS'DB01148'
p86
g3
((lp87
S'ENSP00000319984'
p88
aS'ENSP00000306490'
p89
atRp90
sS'DB00286'
p91
g3
((lp92
S'ENSP00000367102'
p93
aS'ENSP00000337335'
p94
aS'ENSP00000206249'
p95
aS'ENSP00000301891'
p96
aS'ENSP00000382342'
p97
aS'ENSP00000289575'
p98
aS'ENSP00000354511'
p99
aS'ENSP00000265724'
p100
aS'ENSP00000337915'
p101
aS'ENSP00000359478'
p102
aS'ENSP00000342007'
p103
atRp104
sS'DB00284'
p105
g3
((lp106
S'ENSP00000305692'
p107
aS'ENSP00000377509'
p108
aS'ENSP00000264382'
p109
aS'ENSP00000373973'
p110
atRp111
sS'DB00918'
p112
g3
((lp113
S'ENSP00000353820'
p114
aS'ENSP00000340684'
p115
aS'ENSP00000337915'
p116
aS'ENSP00000360317'
p117
aS'ENSP00000313661'
p118
aS'ENSP00000358963'
p119
aS'ENSP00000342007'
p120
atRp121
sS'DB00669'
p122
g3
((lp123
S'ENSP00000340684'
p124
aS'ENSP00000265724'
p125
aS'ENSP00000313661'
p126
aS'ENSP00000316244'
p127
aS'ENSP00000322924'
p128
aS'ENSP00000358963'
p129
atRp130
sS'DB00819'
p131
g3
((lp132
S'ENSP00000300900'
p133
aS'ENSP00000367102'
p134
aS'ENSP00000337915'
p135
aS'ENSP00000285379'
p136
aS'ENSP00000311165'
p137
aS'ENSP00000345659'
p138
aS'ENSP00000285381'
p139
aS'ENSP00000256119'
p140
atRp141
sS'DB00911'
p142
g3
((lp143
S'ENSP00000337915'
p144
atRp145
sS'DB00381'
p146
g3
((lp147
S'ENSP00000353820'
p148
aS'ENSP00000377840'
p149
aS'ENSP00000301141'
p150
aS'ENSP00000324648'
p151
aS'ENSP00000288197'
p152
aS'ENSP00000337915'
p153
aS'ENSP00000355192'
p154
aS'ENSP00000260682'
p155
aS'ENSP00000349320'
p156
aS'ENSP00000265724'
p157
aS'ENSP00000360317'
p158
aS'ENSP00000256119'
p159
aS'ENSP00000320025'
p160
aS'ENSP00000222982'
p161
aS'ENSP00000342007'
p162
atRp163
sS'DB01190'
p164
g3
((lp165
S'ENSP00000337915'
p166
atRp167
sS'DB00461'
p168
g3
((lp169
S'ENSP00000356438'
p170
aS'ENSP00000354612'
p171
aS'ENSP00000225275'
p172
aS'ENSP00000342007'
p173
atRp174
sS'DB00433'
p175
g3
((lp176
S'ENSP00000353820'
p177
aS'ENSP00000354859'
p178
aS'ENSP00000337915'
p179
atRp180
sS'DB00465'
p181
g3
((lp182
S'ENSP00000356438'
p183
aS'ENSP00000354612'
p184
atRp185
sS'DB00750'
p186
g3
((lp187
S'ENSP00000328968'
p188
atRp189
sS'DB00783'
p190
g3
((lp191
S'ENSP00000289575'
p192
aS'ENSP00000206249'
p193
aS'ENSP00000337915'
p194
aS'ENSP00000301891'
p195
aS'ENSP00000260682'
p196
aS'ENSP00000265724'
p197
aS'ENSP00000336528'
p198
aS'ENSP00000360317'
p199
aS'ENSP00000343925'
p200
aS'ENSP00000222982'
p201
aS'ENSP00000342007'
p202
atRp203
sS'DB00747'
p204
g3
((lp205
S'ENSP00000255380'
p206
aS'ENSP00000319984'
p207
aS'ENSP00000331108'
p208
aS'ENSP00000306490'
p209
aS'ENSP00000264382'
p210
aS'ENSP00000265724'
p211
aS'ENSP00000409378'
p212
atRp213
sS'DB00763'
p214
g3
((lp215
S'ENSP00000353820'
p216
aS'ENSP00000301141'
p217
aS'ENSP00000324648'
p218
aS'ENSP00000337915'
p219
aS'ENSP00000260682'
p220
aS'ENSP00000329869'
p221
aS'ENSP00000342007'
p222
atRp223
sS'DB00998'
p224
g3
((lp225
S'ENSP00000342007'
p226
aS'ENSP00000358963'
p227
aS'ENSP00000313661'
p228
atRp229
sS'DB00975'
p230
g3
((lp231
S'ENSP00000361965'
p232
aS'ENSP00000270474'
p233
aS'ENSP00000347046'
p234
aS'ENSP00000265724'
p235
atRp236
sS'DB00794'
p237
g3
((lp238
S'ENSP00000335592'
p239
aS'ENSP00000274545'
p240
aS'ENSP00000348897'
p241
aS'ENSP00000023897'
p242
aS'ENSP00000397026'
p243
aS'ENSP00000359285'
p244
aS'ENSP00000360317'
p245
aS'ENSP00000264318'
p246
aS'ENSP00000260682'
p247
aS'ENSP00000303727'
p248
aS'ENSP00000359334'
p249
aS'ENSP00000264426'
p250
aS'ENSP00000337915'
p251
aS'ENSP00000324648'
p252
aS'ENSP00000342007'
p253
atRp254
sS'DB00549'
p255
g3
((lp256
S'ENSP00000353820'
p257
aS'ENSP00000354612'
p258
aS'ENSP00000362401'
p259
aS'ENSP00000337915'
p260
aS'ENSP00000260682'
p261
aS'ENSP00000342007'
p262
aS'ENSP00000360317'
p263
atRp264
sS'DB00581'
p265
g3
((ltRp266
sS'DB00012'
p267
g3
((lp268
S'ENSP00000222139'
p269
atRp270
sS'DB00364'
p271
g3
((lp272
S'ENSP00000306361'
p273
aS'ENSP00000265171'
p274
aS'ENSP00000306099'
p275
aS'ENSP00000264498'
p276
aS'ENSP00000336829'
p277
atRp278
sS'DB00424'
p279
g3
((lp280
S'ENSP00000255380'
p281
aS'ENSP00000319984'
p282
aS'ENSP00000409378'
p283
aS'ENSP00000306490'
p284
atRp285
sS'DB00016'
p286
g3
((lp287
S'ENSP00000222139'
p288
atRp289
sS'DB00628'
p290
g3
((lp291
S'ENSP00000335592'
p292
aS'ENSP00000274545'
p293
aS'ENSP00000359353'
p294
aS'ENSP00000412673'
p295
aS'ENSP00000348897'
p296
aS'ENSP00000023897'
p297
aS'ENSP00000328973'
p298
aS'ENSP00000295454'
p299
aS'ENSP00000337915'
p300
aS'ENSP00000264318'
p301
aS'ENSP00000359334'
p302
aS'ENSP00000386029'
p303
aS'ENSP00000331912'
p304
atRp305
sS'DB00238'
p306
g3
((lp307
S'ENSP00000353820'
p308
aS'ENSP00000301141'
p309
aS'ENSP00000324648'
p310
aS'ENSP00000337915'
p311
aS'ENSP00000260682'
p312
aS'ENSP00000222982'
p313
aS'ENSP00000342007'
p314
atRp315
sS'DB00588'
p316
g3
((lp317
S'ENSP00000325120'
p318
aS'ENSP00000222982'
p319
aS'ENSP00000350815'
p320
aS'ENSP00000356436'
p321
aS'ENSP00000337915'
p322
atRp323
sS'DB00660'
p324
g3
((ltRp325
sS'DB00417'
p326
g3
((ltRp327
sS'DB00643'
p328
g3
((lp329
S'ENSP00000301071'
p330
aS'ENSP00000265724'
p331
aS'ENSP00000341289'
p332
aS'ENSP00000337915'
p333
atRp334
sS'DB01151'
p335
g3
((lp336
S'ENSP00000353820'
p337
aS'ENSP00000358301'
p338
aS'ENSP00000200652'
p339
aS'ENSP00000369237'
p340
aS'ENSP00000409378'
p341
aS'ENSP00000255380'
p342
aS'ENSP00000319984'
p343
aS'ENSP00000324648'
p344
aS'ENSP00000331108'
p345
aS'ENSP00000301141'
p346
aS'ENSP00000306490'
p347
aS'ENSP00000337915'
p348
aS'ENSP00000245407'
p349
aS'ENSP00000265724'
p350
aS'ENSP00000367959'
p351
aS'ENSP00000285979'
p352
aS'ENSP00000305372'
p353
aS'ENSP00000340409'
p354
aS'ENSP00000347299'
p355
aS'ENSP00000261707'
p356
aS'ENSP00000342007'
p357
atRp358
sS'DB00920'
p359
g3
((lp360
S'ENSP00000270474'
p361
aS'ENSP00000311453'
p362
aS'ENSP00000368730'
p363
aS'ENSP00000264917'
p364
aS'ENSP00000332116'
p365
aS'ENSP00000347689'
p366
aS'ENSP00000310661'
p367
aS'ENSP00000347299'
p368
aS'ENSP00000384806'
p369
aS'ENSP00000270776'
p370
atRp371
sS'DB00749'
p372
g3
((lp373
S'ENSP00000354612'
p374
aS'ENSP00000346768'
p375
aS'ENSP00000367102'
p376
aS'ENSP00000260682'
p377
aS'ENSP00000356438'
p378
aS'ENSP00000419692'
p379
atRp380
sS'DB01110'
p381
g3
((lp382
S'ENSP00000327251'
p383
aS'ENSP00000264773'
p384
aS'ENSP00000260433'
p385
aS'ENSP00000260682'
p386
aS'ENSP00000351068'
p387
aS'ENSP00000318212'
p388
aS'ENSP00000331727'
p389
aS'ENSP00000353820'
p390
aS'ENSP00000324648'
p391
aS'ENSP00000258111'
p392
aS'ENSP00000271915'
p393
aS'ENSP00000274629'
p394
aS'ENSP00000262186'
p395
aS'ENSP00000337915'
p396
aS'ENSP00000262888'
p397
aS'ENSP00000292427'
p398
aS'ENSP00000265724'
p399
aS'ENSP00000319370'
p400
aS'ENSP00000342007'
p401
aS'ENSP00000222249'
p402
aS'ENSP00000301141'
p403
aS'ENSP00000297494'
p404
atRp405
sS'DB00963'
p406
g3
((lp407
S'ENSP00000356438'
p408
aS'ENSP00000354612'
p409
atRp410
sS'DB00216'
p411
g3
((lp412
S'ENSP00000258400'
p413
aS'ENSP00000353820'
p414
aS'ENSP00000307766'
p415
aS'ENSP00000301141'
p416
aS'ENSP00000337915'
p417
aS'ENSP00000337949'
p418
aS'ENSP00000260682'
p419
aS'ENSP00000265724'
p420
aS'ENSP00000313661'
p421
aS'ENSP00000354612'
p422
aS'ENSP00000316244'
p423
aS'ENSP00000322924'
p424
aS'ENSP00000358963'
p425
atRp426
sS'DB00231'
p427
g3
((lp428
S'ENSP00000335592'
p429
aS'ENSP00000274545'
p430
aS'ENSP00000359353'
p431
aS'ENSP00000412673'
p432
aS'ENSP00000348897'
p433
aS'ENSP00000023897'
p434
aS'ENSP00000324648'
p435
aS'ENSP00000328973'
p436
aS'ENSP00000295454'
p437
aS'ENSP00000337915'
p438
aS'ENSP00000264318'
p439
aS'ENSP00000260682'
p440
aS'ENSP00000359334'
p441
aS'ENSP00000386029'
p442
aS'ENSP00000331912'
p443
aS'ENSP00000360317'
p444
atRp445
sS'DB00315'
p446
g3
((lp447
S'ENSP00000316244'
p448
aS'ENSP00000340684'
p449
aS'ENSP00000313661'
p450
aS'ENSP00000358963'
p451
aS'ENSP00000322924'
p452
aS'ENSP00000342007'
p453
atRp454
sS'DB01115'
p455
g3
((lp456
S'ENSP00000353820'
p457
aS'ENSP00000320025'
p458
aS'ENSP00000360317'
p459
aS'ENSP00000301141'
p460
aS'ENSP00000272298'
p461
aS'ENSP00000324648'
p462
aS'ENSP00000291295'
p463
aS'ENSP00000228858'
p464
aS'ENSP00000337915'
p465
aS'ENSP00000355192'
p466
aS'ENSP00000260682'
p467
aS'ENSP00000349320'
p468
aS'ENSP00000265724'
p469
aS'ENSP00000334198'
p470
aS'ENSP00000349467'
p471
aS'ENSP00000359478'
p472
aS'ENSP00000222982'
p473
aS'ENSP00000342007'
p474
atRp475
sS'DB00605'
p476
g3
((lp477
S'ENSP00000332812'
p478
aS'ENSP00000354612'
p479
aS'ENSP00000367102'
p480
aS'ENSP00000263025'
p481
aS'ENSP00000285930'
p482
aS'ENSP00000310928'
p483
aS'ENSP00000356438'
p484
aS'ENSP00000342007'
p485
atRp486
sS'DB00804'
p487
g3
((lp488
S'ENSP00000319984'
p489
aS'ENSP00000306490'
p490
atRp491
sS'DB00857'
p492
g3
((lp493
S'ENSP00000353820'
p494
aS'ENSP00000268053'
p495
aS'ENSP00000354612'
p496
aS'ENSP00000265896'
p497
aS'ENSP00000337915'
p498
aS'ENSP00000260433'
p499
aS'ENSP00000260682'
p500
aS'ENSP00000342007'
p501
aS'ENSP00000360317'
p502
atRp503
sS'DB01200'
p504
g3
((lp505
S'ENSP00000258400'
p506
aS'ENSP00000354859'
p507
aS'ENSP00000306662'
p508
aS'ENSP00000368766'
p509
aS'ENSP00000306129'
p510
aS'ENSP00000313661'
p511
aS'ENSP00000373169'
p512
aS'ENSP00000337915'
p513
aS'ENSP00000337949'
p514
aS'ENSP00000280155'
p515
aS'ENSP00000265724'
p516
aS'ENSP00000367959'
p517
aS'ENSP00000386069'
p518
aS'ENSP00000387281'
p519
aS'ENSP00000358963'
p520
aS'ENSP00000342007'
p521
aS'ENSP00000327652'
p522
aS'ENSP00000276198'
p523
aS'ENSP00000316244'
p524
atRp525
sS'DB00691'
p526
g3
((lp527
S'ENSP00000290866'
p528
aS'ENSP00000252519'
p529
atRp530
sS'DB00458'
p531
g3
((lp532
S'ENSP00000353820'
p533
aS'ENSP00000200652'
p534
aS'ENSP00000369237'
p535
aS'ENSP00000409378'
p536
aS'ENSP00000255380'
p537
aS'ENSP00000319984'
p538
aS'ENSP00000324648'
p539
aS'ENSP00000331108'
p540
aS'ENSP00000337915'
p541
aS'ENSP00000306490'
p542
aS'ENSP00000342007'
p543
aS'ENSP00000368766'
p544
aS'ENSP00000265724'
p545
aS'ENSP00000367959'
p546
aS'ENSP00000333496'
p547
aS'ENSP00000285979'
p548
aS'ENSP00000347299'
p549
aS'ENSP00000261707'
p550
aS'ENSP00000319591'
p551
atRp552
sS'DB00554'
p553
g3
((lp554
S'ENSP00000354612'
p555
aS'ENSP00000367102'
p556
aS'ENSP00000337335'
p557
aS'ENSP00000301891'
p558
aS'ENSP00000260682'
p559
aS'ENSP00000356438'
p560
aS'ENSP00000360317'
p561
atRp562
sS'DB00980'
p563
g3
((lp564
S'ENSP00000337915'
p565
aS'ENSP00000342007'
p566
aS'ENSP00000302811'
p567
aS'ENSP00000257068'
p568
atRp569
sS'DB00991'
p570
g3
((lp571
S'ENSP00000356438'
p572
aS'ENSP00000260682'
p573
aS'ENSP00000354612'
p574
atRp575
sS'DB00861'
p576
g3
((lp577
S'ENSP00000356438'
p578
aS'ENSP00000367102'
p579
aS'ENSP00000354612'
p580
atRp581
sS'DB00938'
p582
g3
((lp583
S'ENSP00000305372'
p584
aS'ENSP00000360317'
p585
aS'ENSP00000222982'
p586
aS'ENSP00000337915'
p587
atRp588
sS'DB00795'
p589
g3
((lp590
S'ENSP00000354612'
p591
aS'ENSP00000339151'
p592
aS'ENSP00000280612'
p593
aS'ENSP00000287820'
p594
aS'ENSP00000265838'
p595
aS'ENSP00000356438'
p596
aS'ENSP00000363512'
p597
aS'ENSP00000359478'
p598
aS'ENSP00000222982'
p599
atRp600
sS'DB00423'
p601
g3
((lp602
S'ENSP00000256119'
p603
atRp604
sS'DB00450'
p605
g3
((lp606
S'ENSP00000354859'
p607
atRp608
sS'DB01261'
p609
g3
((lp610
S'ENSP00000353731'
p611
aS'ENSP00000360317'
p612
aS'ENSP00000265724'
p613
aS'ENSP00000337915'
p614
atRp615
sS'DB00500'
p616
g3
((lp617
S'ENSP00000356438'
p618
aS'ENSP00000367102'
p619
aS'ENSP00000354612'
p620
atRp621
sS'DB00868'
p622
g3
((lp623
S'ENSP00000328968'
p624
atRp625
sS'DB00455'
p626
g3
((lp627
S'ENSP00000353820'
p628
aS'ENSP00000337915'
p629
aS'ENSP00000260682'
p630
aS'ENSP00000265724'
p631
aS'ENSP00000347299'
p632
aS'ENSP00000360317'
p633
atRp634
sS'DB00712'
p635
g3
((lp636
S'ENSP00000356438'
p637
aS'ENSP00000346768'
p638
aS'ENSP00000367102'
p639
aS'ENSP00000260682'
p640
aS'ENSP00000354612'
p641
atRp642
sS'DB00573'
p643
g3
((lp644
S'ENSP00000356438'
p645
aS'ENSP00000354612'
p646
atRp647
sS'DB01009'
p648
g3
((lp649
S'ENSP00000354612'
p650
aS'ENSP00000295683'
p651
aS'ENSP00000337335'
p652
aS'ENSP00000301891'
p653
aS'ENSP00000260682'
p654
aS'ENSP00000356438'
p655
aS'ENSP00000367102'
p656
aS'ENSP00000360317'
p657
atRp658
sS'DB00540'
p659
g3
((lp660
S'ENSP00000353820'
p661
aS'ENSP00000369237'
p662
aS'ENSP00000354612'
p663
aS'ENSP00000409378'
p664
aS'ENSP00000255380'
p665
aS'ENSP00000319984'
p666
aS'ENSP00000331108'
p667
aS'ENSP00000306490'
p668
aS'ENSP00000337915'
p669
aS'ENSP00000368766'
p670
aS'ENSP00000260682'
p671
aS'ENSP00000222982'
p672
aS'ENSP00000367959'
p673
aS'ENSP00000347299'
p674
aS'ENSP00000261707'
p675
aS'ENSP00000342007'
p676
aS'ENSP00000316244'
p677
atRp678
s.