(dp1
S'ENSP00000327251'
p2
S'NOS2'
p3
sS'ENSP00000354612'
p4
S'PTGS1'
p5
sS'ENSP00000023897'
p6
S'GABRA1'
p7
sS'ENSP00000264773'
p8
S'KCNN2'
p9
sS'ENSP00000340409'
p10
S'SMPD1'
p11
sS'ENSP00000337949'
p12
S'HTR7'
p13
sS'ENSP00000285381'
p14
S'CA3'
p15
sS'ENSP00000351068'
p16
S'KCNMB2'
p17
sS'ENSP00000285979'
p18
S'CYP2C18'
p19
sS'ENSP00000318212'
p20
S'KCNH6'
p21
sS'ENSP00000353820'
p22
S'CYP2D6'
p23
sS'ENSP00000358301'
p24
S'ADRB1'
p25
sS'ENSP00000368766'
p26
S'ADRA1D'
p27
sS'ENSP00000280612'
p28
S'SLC7A11'
p29
sS'ENSP00000255380'
p30
S'CHRM3'
p31
sS'ENSP00000324648'
p32
S'CYP2B6'
p33
sS'ENSP00000258111'
p34
S'KCNMB4'
p35
sS'ENSP00000359285'
p36
S'CHRNA4'
p37
sS'ENSP00000325120'
p38
S'PGR'
p39
sS'ENSP00000311165'
p40
S'AQP1'
p41
sS'ENSP00000367959'
p42
S'HTR2A'
p43
sS'ENSP00000313661'
p44
S'HTR1D'
p45
sS'ENSP00000342007'
p46
S'CYP1A2'
p47
sS'ENSP00000343925'
p48
S'ESR2'
p49
sS'ENSP00000333821'
p50
S'MC2R'
p51
sS'ENSP00000274629'
p52
S'KCNMB1'
p53
sS'ENSP00000333496'
p54
S'KCND2'
p55
sS'ENSP00000265896'
p56
S'SQLE'
p57
sS'ENSP00000336829'
p58
S'FGG'
p59
sS'ENSP00000280155'
p60
S'ADRA2A'
p61
sS'ENSP00000332116'
p62
S'PDE4B'
p63
sS'ENSP00000356436'
p64
S'PLA2G4A'
p65
sS'ENSP00000363512'
p66
S'ALOX5'
p67
sS'ENSP00000356438'
p68
S'PTGS2'
p69
sS'ENSP00000362401'
p70
S'CYSLTR1'
p71
sS'ENSP00000359478'
p72
S'ABCC2'
p73
sS'ENSP00000354859'
p74
S'DRD2'
p75
sS'ENSP00000274545'
p76
S'GABRA6'
p77
sS'ENSP00000295683'
p78
S'CXCR1'
p79
sS'ENSP00000327652'
p80
S'DRD1'
p81
sS'ENSP00000256119'
p82
S'CA1'
p83
sS'ENSP00000334198'
p84
S'CACNA1H'
p85
sS'ENSP00000349467'
p86
S'CALM1'
p87
sS'ENSP00000263817'
p88
S'ABCB11'
p89
sS'ENSP00000319591'
p90
S'KCND3'
p91
sS'ENSP00000353731'
p92
S'DPP4'
p93
sS'ENSP00000377840'
p94
S'CACNB1'
p95
sS'ENSP00000367102'
p96
S'SLC22A6'
p97
sS'ENSP00000362463'
p98
S'GLO1'
p99
sS'ENSP00000262186'
p100
S'KCNH2'
p101
sS'ENSP00000264917'
p102
S'PDE8B'
p103
sS'ENSP00000260682'
p104
S'CYP2C9'
p105
sS'ENSP00000368730'
p106
S'PDE7A'
p107
sS'ENSP00000409378'
p108
S'CHRM4'
p109
sS'ENSP00000270474'
p110
S'PDE4A'
p111
sS'ENSP00000261707'
p112
S'SLC6A4'
p113
sS'ENSP00000276198'
p114
S'HTR2C'
p115
sS'ENSP00000258400'
p116
S'HTR2B'
p117
sS'ENSP00000295454'
p118
S'GABRB1'
p119
sS'ENSP00000272298'
p120
S'CALM1'
p121
sS'ENSP00000382342'
p122
S'ABCC1'
p123
sS'ENSP00000289575'
p124
S'SLCO2B1'
p125
sS'ENSP00000354511'
p126
S'COMT'
p127
sS'ENSP00000336528'
p128
S'NR1I2'
p129
sS'ENSP00000265171'
p130
S'EGF'
p131
sS'ENSP00000350815'
p132
S'NR3C2'
p133
sS'ENSP00000341289'
p134
S'TUBB2C'
p135
sS'ENSP00000339151'
p136
S'IKBKB'
p137
sS'ENSP00000291295'
p138
S'CALM1'
p139
sS'ENSP00000262888'
p140
S'KCNN4'
p141
sS'ENSP00000264382'
p142
S'SI'
p143
sS'ENSP00000347046'
p144
S'PDE5A'
p145
sS'ENSP00000364252'
p146
S'PLA2G2A'
p147
sS'ENSP00000319370'
p148
S'KCNMB3'
p149
sS'ENSP00000200652'
p150
S'SLC22A4'
p151
sS'ENSP00000369237'
p152
S'SLC6A2'
p153
sS'ENSP00000264498'
p154
S'FGF2'
p155
sS'ENSP00000301141'
p156
S'CYP2A6'
p157
sS'ENSP00000300900'
p158
S'CA4'
p159
sS'ENSP00000387281'
p160
S'ADRA2B'
p161
sS'ENSP00000337335'
p162
S'SLC22A8'
p163
sS'ENSP00000301891'
p164
S'SLC22A11'
p165
sS'ENSP00000355192'
p166
S'CACNA1S'
p167
sS'ENSP00000264318'
p168
S'GABRA4'
p169
sS'ENSP00000347689'
p170
S'PDE4C'
p171
sS'ENSP00000386029'
p172
S'GABRR2'
p173
sS'ENSP00000384806'
p174
S'PDE4D'
p175
sS'ENSP00000348897'
p176
S'GABRA2'
p177
sS'ENSP00000270776'
p178
S'PGD'
p179
sS'ENSP00000328968'
p180
S'SCN5A'
p181
sS'ENSP00000340684'
p182
S'MAOA'
p183
sS'ENSP00000305692'
p184
S'GAA'
p185
sS'ENSP00000245407'
p186
S'SLC22A5'
p187
sS'ENSP00000260433'
p188
S'CYP19A1'
p189
sS'ENSP00000285930'
p190
S'AKR1B1'
p191
sS'ENSP00000264426'
p192
S'GRIA2'
p193
sS'ENSP00000301071'
p194
S'TUBA1A'
p195
sS'ENSP00000331727'
p196
S'KCNH7'
p197
sS'ENSP00000360317'
p198
S'CYP2C8'
p199
sS'ENSP00000377509'
p200
S'AMY2A'
p201
sS'ENSP00000412673'
p202
S'GABRR1'
p203
sS'ENSP00000331912'
p204
S'GABRG3'
p205
sS'ENSP00000288197'
p206
S'CACNA2D3'
p207
sS'ENSP00000287820'
p208
S'PPARG'
p209
sS'ENSP00000306361'
p210
S'FGA'
p211
sS'ENSP00000329869'
p212
S'TPO'
p213
sS'ENSP00000271915'
p214
S'KCNN3'
p215
sS'ENSP00000306662'
p216
S'ADRA1B'
p217
sS'ENSP00000337915'
p218
S'CYP3A4'
p219
sS'ENSP00000263025'
p220
S'MAPK3'
p221
sS'ENSP00000292427'
p222
S'CYP11B1'
p223
sS'ENSP00000310928'
p224
S'PPARD'
p225
sS'ENSP00000265724'
p226
S'ABCB1'
p227
sS'ENSP00000359334'
p228
S'GABRA3'
p229
sS'ENSP00000305372'
p230
S'ADRB2'
p231
sS'ENSP00000306490'
p232
S'CHRM1'
p233
sS'ENSP00000222982'
p234
S'CYP3A5'
p235
sS'ENSP00000358963'
p236
S'HTR1B'
p237
sS'ENSP00000332812'
p238
S'GPR44'
p239
sS'ENSP00000268053'
p240
S'CYP11A1'
p241
sS'ENSP00000307766'
p242
S'HTR1E'
p243
sS'ENSP00000373169'
p244
S'DRD3'
p245
sS'ENSP00000222139'
p246
S'EPOR'
p247
sS'ENSP00000285379'
p248
S'CA2'
p249
sS'ENSP00000419692'
p250
S'RXRA'
p251
sS'ENSP00000347299'
p252
S'HRH1'
p253
sS'ENSP00000302811'
p254
S'MTNR1A'
p255
sS'ENSP00000346768'
p256
S'UGT1A9'
p257
sS'ENSP00000373973'
p258
S'MGAM'
p259
sS'ENSP00000306099'
p260
S'FGB'
p261
sS'ENSP00000265838'
p262
S'ACAT1'
p263
sS'ENSP00000361965'
p264
S'ADA'
p265
sS'ENSP00000345659'
p266
S'CA7'
p267
sS'ENSP00000310661'
p268
S'PDE7B'
p269
sS'ENSP00000322924'
p270
S'HTR1F'
p271
sS'ENSP00000311453'
p272
S'PDE8A'
p273
sS'ENSP00000228858'
p274
S'KCNA1'
p275
sS'ENSP00000257068'
p276
S'MTNR1B'
p277
sS'ENSP00000335592'
p278
S'GABRA5'
p279
sS'ENSP00000319984'
p280
S'CHRM2'
p281
sS'ENSP00000397026'
p282
S'GRIK2'
p283
sS'ENSP00000349320'
p284
S'CACNA2D1'
p285
sS'ENSP00000303727'
p286
S'CHRNA7'
p287
sS'ENSP00000003100'
p288
S'CYP51A1'
p289
sS'ENSP00000328973'
p290
S'TSPO'
p291
sS'ENSP00000316244'
p292
S'HTR1A'
p293
sS'ENSP00000222249'
p294
S'KCNN1'
p295
sS'ENSP00000359353'
p296
S'GABRE'
p297
sS'ENSP00000331108'
p298
S'CHRM5'
p299
sS'ENSP00000206249'
p300
S'ESR1'
p301
sS'ENSP00000297494'
p302
S'NOS3'
p303
sS'ENSP00000252519'
p304
S'ACE2'
p305
sS'ENSP00000306129'
p306
S'DRD5'
p307
sS'ENSP00000386069'
p308
S'ADRA2C'
p309
sS'ENSP00000290866'
p310
S'ACE'
p311
sS'ENSP00000320025'
p312
S'CACNB2'
p313
sS'ENSP00000225275'
p314
S'MPO'
p315
s.